target datalayout = "e-m:e-p270:32:32-p271:32:32-p272:64:64-i64:64-i128:128-f80:128-n8:16:32:64-S128"
target triple = "x86_64-pc-linux-gnu"

; Function Attrs: nounwind uwtable
define internal void @Float32_To_Int16_Clip(ptr noundef %0, i32 noundef %1, ptr noundef %2, i32 noundef %3, i32 noundef %4, ptr noundef %5) #0 {
  %7 = alloca ptr, align 8
  %8 = alloca i32, align 4
  %9 = alloca ptr, align 8
  %10 = alloca i32, align 4
  %11 = alloca i32, align 4
  %12 = alloca ptr, align 8
  %13 = alloca ptr, align 8
  %14 = alloca ptr, align 8
  %15 = alloca i64, align 8
  store ptr %0, ptr %7, align 8, !tbaa !70
  store i32 %1, ptr %8, align 4, !tbaa !71
  store ptr %2, ptr %9, align 8, !tbaa !70
  store i32 %3, ptr %10, align 4, !tbaa !71
  store i32 %4, ptr %11, align 4, !tbaa !71
  store ptr %5, ptr %12, align 8, !tbaa !73
  call void @llvm.lifetime.start.p0(i64 8, ptr %13) #4
  %16 = load ptr, ptr %9, align 8, !tbaa !70
  store ptr %16, ptr %13, align 8, !tbaa !75
  call void @llvm.lifetime.start.p0(i64 8, ptr %14) #4
  %17 = load ptr, ptr %7, align 8, !tbaa !70
  store ptr %17, ptr %14, align 8, !tbaa !94
  br label %18

18:                                               ; preds = %39, %6
  %19 = load i32, ptr %11, align 4, !tbaa !71
  %20 = add i32 %19, -1
  store i32 %20, ptr %11, align 4, !tbaa !71
  %21 = icmp ne i32 %19, 0
  br i1 %21, label %22, label %52

22:                                               ; preds = %18
  call void @llvm.lifetime.start.p0(i64 8, ptr %15) #4
  %23 = load ptr, ptr %13, align 8, !tbaa !75
  %24 = load float, ptr %23, align 4, !tbaa !79
  %25 = fmul float %24, 3.276700e+04
  %26 = fptosi float %25 to i32
  %27 = sext i32 %26 to i64
  store i64 %27, ptr %15, align 8, !tbaa !3
  %28 = load i64, ptr %15, align 8, !tbaa !3
  %29 = icmp slt i64 %28, -32768
  br i1 %29, label %30, label %31

30:                                               ; preds = %22
  br label %39

31:                                               ; preds = %22
  %32 = load i64, ptr %15, align 8, !tbaa !3
  %33 = icmp sgt i64 %32, 32767
  br i1 %33, label %34, label %35

34:                                               ; preds = %31
  br label %37

35:                                               ; preds = %31
  %36 = load i64, ptr %15, align 8, !tbaa !3
  br label %37

37:                                               ; preds = %35, %34
  %38 = phi i64 [ 32767, %34 ], [ %36, %35 ]
  br label %39

39:                                               ; preds = %37, %30
  %40 = phi i64 [ -32768, %30 ], [ %38, %37 ]
  store i64 %40, ptr %15, align 8, !tbaa !3
  %41 = load i64, ptr %15, align 8, !tbaa !3
  %42 = trunc i64 %41 to i16
  %43 = load ptr, ptr %14, align 8, !tbaa !94
  store i16 %42, ptr %43, align 2, !tbaa !96
  %44 = load i32, ptr %10, align 4, !tbaa !71
  %45 = load ptr, ptr %13, align 8, !tbaa !75
  %46 = sext i32 %44 to i64
  %47 = getelementptr inbounds float, ptr %45, i64 %46
  store ptr %47, ptr %13, align 8, !tbaa !75
  %48 = load i32, ptr %8, align 4, !tbaa !71
  %49 = load ptr, ptr %14, align 8, !tbaa !94
  %50 = sext i32 %48 to i64
  %51 = getelementptr inbounds i16, ptr %49, i64 %50
  store ptr %51, ptr %14, align 8, !tbaa !94
  call void @llvm.lifetime.end.p0(i64 8, ptr %15) #4
  br label %18, !llvm.loop !100

52:                                               ; preds = %18
  call void @llvm.lifetime.end.p0(i64 8, ptr %14) #4
  call void @llvm.lifetime.end.p0(i64 8, ptr %13) #4
  ret void
}